; Function Attrs: mustprogress uwtable
define dso_local void @_ZN4absl18SetStderrThresholdENS_18LogSeverityAtLeastE(i32 noundef %0) local_unnamed_addr #1 {
  store atomic i32 %0, ptr @_ZN4absl12_GLOBAL__N_115stderrthresholdE.0 release, align 4
  %2 = load atomic i64, ptr @_ZN4absl12_GLOBAL__N_124logging_globals_listenerE acquire, align 8
  %3 = icmp eq i64 %2, ptrtoint (ptr @_ZN4absl13base_internal10AtomicHookIPFvvEE13DummyFunctionEv to i64)
  %.not2.i = icmp eq i64 %2, 0
  %.not.i = or i1 %3, %.not2.i
  br i1 %.not.i, label %_ZN4absl12_GLOBAL__N_129TriggerLoggingGlobalsListenerEv.exit, label %4

4:                                                ; preds = %1
  %.0.i.i.i.i.i = inttoptr i64 %2 to ptr
  tail call void %.0.i.i.i.i.i()
  br label %_ZN4absl12_GLOBAL__N_129TriggerLoggingGlobalsListenerEv.exit

_ZN4absl12_GLOBAL__N_129TriggerLoggingGlobalsListenerEv.exit: ; preds = %1, %4
  ret void
}